target datalayout = "e-m:e-p270:32:32-p271:32:32-p272:64:64-i64:64-i128:128-f80:128-n8:16:32:64-S128"
target triple = "x86_64-pc-linux-gnu"

%class.dtTileCache = type { i32, i32, ptr, ptr, ptr, i32, i32, %struct.dtTileCacheParams, ptr, ptr, ptr, ptr, ptr, [64 x %"struct.dtTileCache::ObstacleRequest"], i32, [64 x i32], i32 }
%struct.dtTileCacheParams = type { [3 x float], float, float, i32, i32, float, float, float, float, i32, i32 }
%"struct.dtTileCache::ObstacleRequest" = type { i32, i32 }
%struct.dtCompressedTile = type { i32, ptr, ptr, i32, ptr, i32, i32, ptr }
%struct.dtTileCacheLayerHeader = type { i32, i32, i32, i32, i32, [3 x float], [3 x float], i16, i16, i8, i8, i8, i8, i8, i8 }

; Function Attrs: mustprogress nounwind uwtable
define linkonce_odr noundef i32 @_ZNK11dtTileCache12encodeTileIdEjj(ptr noundef nonnull align 8 dereferenceable(912) %0, i32 noundef %1, i32 noundef %2) #2 comdat align 2 {
  %4 = alloca ptr, align 8
  %5 = alloca i32, align 4
  %6 = alloca i32, align 4
  store ptr %0, ptr %4, align 8
  store i32 %1, ptr %5, align 4
  store i32 %2, ptr %6, align 4
  %7 = load ptr, ptr %4, align 8
  %8 = load i32, ptr %5, align 4
  %9 = getelementptr inbounds %class.dtTileCache, ptr %7, i32 0, i32 6
  %10 = load i32, ptr %9, align 4
  %11 = shl i32 %8, %10
  %12 = load i32, ptr %6, align 4
  %13 = or i32 %11, %12
  ret i32 %13
}

; Function Attrs: mustprogress uwtable
define noundef i32 @_ZNK11dtTileCache10getTileRefEPK16dtCompressedTile(ptr noundef nonnull align 8 dereferenceable(912) %0, ptr noundef %1) #0 align 2 {
  %3 = alloca i32, align 4
  %4 = alloca ptr, align 8
  %5 = alloca ptr, align 8
  %6 = alloca i32, align 4
  store ptr %0, ptr %4, align 8
  store ptr %1, ptr %5, align 8
  %7 = load ptr, ptr %4, align 8
  %8 = load ptr, ptr %5, align 8
  %9 = icmp ne ptr %8, null
  br i1 %9, label %11, label %10

10:                                               ; preds = %2
  store i32 0, ptr %3, align 4
  br label %25

11:                                               ; preds = %2
  %12 = load ptr, ptr %5, align 8
  %13 = getelementptr inbounds %class.dtTileCache, ptr %7, i32 0, i32 4
  %14 = load ptr, ptr %13, align 8
  %15 = ptrtoint ptr %12 to i64
  %16 = ptrtoint ptr %14 to i64
  %17 = sub i64 %15, %16
  %18 = sdiv exact i64 %17, 56
  %19 = trunc i64 %18 to i32
  store i32 %19, ptr %6, align 4
  %20 = load ptr, ptr %5, align 8
  %21 = getelementptr inbounds %struct.dtCompressedTile, ptr %20, i32 0, i32 0
  %22 = load i32, ptr %21, align 8
  %23 = load i32, ptr %6, align 4
  %24 = call noundef i32 @_ZNK11dtTileCache12encodeTileIdEjj(ptr noundef nonnull align 8 dereferenceable(912) %7, i32 noundef %22, i32 noundef %23)
  store i32 %24, ptr %3, align 4
  br label %25

25:                                               ; preds = %11, %10
  %26 = load i32, ptr %3, align 4
  ret i32 %26
}

; Function Attrs: mustprogress nounwind uwtable
define linkonce_odr noundef i32 @_Z8dtAlign4i(i32 noundef %0) #2 comdat {
  %2 = alloca i32, align 4
  store i32 %0, ptr %2, align 4
  %3 = load i32, ptr %2, align 4
  %4 = add nsw i32 %3, 3
  %5 = and i32 %4, -4
  ret i32 %5
}

; Function Attrs: mustprogress nounwind uwtable
define linkonce_odr noundef i32 @_Z15computeTileHashiii(i32 noundef %0, i32 noundef %1, i32 noundef %2) #2 comdat {
  %4 = alloca i32, align 4
  %5 = alloca i32, align 4
  %6 = alloca i32, align 4
  %7 = alloca i32, align 4
  %8 = alloca i32, align 4
  %9 = alloca i32, align 4
  store i32 %0, ptr %4, align 4
  store i32 %1, ptr %5, align 4
  store i32 %2, ptr %6, align 4
  store i32 -1918454973, ptr %7, align 4
  store i32 -669632447, ptr %8, align 4
  %10 = load i32, ptr %4, align 4
  %11 = mul i32 -1918454973, %10
  %12 = load i32, ptr %5, align 4
  %13 = mul i32 -669632447, %12
  %14 = add i32 %11, %13
  store i32 %14, ptr %9, align 4
  %15 = load i32, ptr %9, align 4
  %16 = load i32, ptr %6, align 4
  %17 = and i32 %15, %16
  ret i32 %17
}

; Function Attrs: mustprogress uwtable
define noundef ptr @_ZN11dtTileCache9getTileAtEiii(ptr noundef nonnull align 8 dereferenceable(912) %0, i32 noundef %1, i32 noundef %2, i32 noundef %3) #0 align 2 {
  %5 = alloca ptr, align 8
  %6 = alloca ptr, align 8
  %7 = alloca i32, align 4
  %8 = alloca i32, align 4
  %9 = alloca i32, align 4
  %10 = alloca i32, align 4
  %11 = alloca ptr, align 8
  store ptr %0, ptr %6, align 8
  store i32 %1, ptr %7, align 4
  store i32 %2, ptr %8, align 4
  store i32 %3, ptr %9, align 4
  %12 = load ptr, ptr %6, align 8
  %13 = load i32, ptr %7, align 4
  %14 = load i32, ptr %8, align 4
  %15 = getelementptr inbounds %class.dtTileCache, ptr %12, i32 0, i32 1
  %16 = load i32, ptr %15, align 4
  %17 = call noundef i32 @_Z15computeTileHashiii(i32 noundef %13, i32 noundef %14, i32 noundef %16)
  store i32 %17, ptr %10, align 4
  %18 = getelementptr inbounds %class.dtTileCache, ptr %12, i32 0, i32 2
  %19 = load ptr, ptr %18, align 8
  %20 = load i32, ptr %10, align 4
  %21 = sext i32 %20 to i64
  %22 = getelementptr inbounds ptr, ptr %19, i64 %21
  %23 = load ptr, ptr %22, align 8
  store ptr %23, ptr %11, align 8
  br label %24

24:                                               ; preds = %58, %4
  %25 = load ptr, ptr %11, align 8
  %26 = icmp ne ptr %25, null
  br i1 %26, label %27, label %62

27:                                               ; preds = %24
  %28 = load ptr, ptr %11, align 8
  %29 = getelementptr inbounds %struct.dtCompressedTile, ptr %28, i32 0, i32 1
  %30 = load ptr, ptr %29, align 8
  %31 = icmp ne ptr %30, null
  br i1 %31, label %32, label %58

32:                                               ; preds = %27
  %33 = load ptr, ptr %11, align 8
  %34 = getelementptr inbounds %struct.dtCompressedTile, ptr %33, i32 0, i32 1
  %35 = load ptr, ptr %34, align 8
  %36 = getelementptr inbounds %struct.dtTileCacheLayerHeader, ptr %35, i32 0, i32 2
  %37 = load i32, ptr %36, align 4
  %38 = load i32, ptr %7, align 4
  %39 = icmp eq i32 %37, %38
  br i1 %39, label %40, label %58

40:                                               ; preds = %32
  %41 = load ptr, ptr %11, align 8
  %42 = getelementptr inbounds %struct.dtCompressedTile, ptr %41, i32 0, i32 1
  %43 = load ptr, ptr %42, align 8
  %44 = getelementptr inbounds %struct.dtTileCacheLayerHeader, ptr %43, i32 0, i32 3
  %45 = load i32, ptr %44, align 4
  %46 = load i32, ptr %8, align 4
  %47 = icmp eq i32 %45, %46
  br i1 %47, label %48, label %58

48:                                               ; preds = %40
  %49 = load ptr, ptr %11, align 8
  %50 = getelementptr inbounds %struct.dtCompressedTile, ptr %49, i32 0, i32 1
  %51 = load ptr, ptr %50, align 8
  %52 = getelementptr inbounds %struct.dtTileCacheLayerHeader, ptr %51, i32 0, i32 4
  %53 = load i32, ptr %52, align 4
  %54 = load i32, ptr %9, align 4
  %55 = icmp eq i32 %53, %54
  br i1 %55, label %56, label %58

56:                                               ; preds = %48
  %57 = load ptr, ptr %11, align 8
  store ptr %57, ptr %5, align 8
  br label %63

58:                                               ; preds = %48, %40, %32, %27
  %59 = load ptr, ptr %11, align 8
  %60 = getelementptr inbounds %struct.dtCompressedTile, ptr %59, i32 0, i32 7
  %61 = load ptr, ptr %60, align 8
  store ptr %61, ptr %11, align 8
  br label %24, !llvm.loop !9

62:                                               ; preds = %24
  store ptr null, ptr %5, align 8
  br label %63

63:                                               ; preds = %62, %56
  %64 = load ptr, ptr %5, align 8
  ret ptr %64
}

; Function Attrs: mustprogress uwtable
define noundef i32 @_ZN11dtTileCache7addTileEPhihPj(ptr noundef nonnull align 8 dereferenceable(912) %0, ptr noundef %1, i32 noundef %2, i8 noundef zeroext %3, ptr noundef %4) #0 align 2 {
  %6 = alloca i32, align 4
  %7 = alloca ptr, align 8
  %8 = alloca ptr, align 8
  %9 = alloca i32, align 4
  %10 = alloca i8, align 1
  %11 = alloca ptr, align 8
  %12 = alloca ptr, align 8
  %13 = alloca ptr, align 8
  %14 = alloca i32, align 4
  %15 = alloca i32, align 4
  store ptr %0, ptr %7, align 8
  store ptr %1, ptr %8, align 8
  store i32 %2, ptr %9, align 4
  store i8 %3, ptr %10, align 1
  store ptr %4, ptr %11, align 8
  %16 = load ptr, ptr %7, align 8
  %17 = load ptr, ptr %8, align 8
  store ptr %17, ptr %12, align 8
  %18 = load ptr, ptr %12, align 8
  %19 = getelementptr inbounds %struct.dtTileCacheLayerHeader, ptr %18, i32 0, i32 0
  %20 = load i32, ptr %19, align 4
  %21 = icmp ne i32 %20, 1146375250
  br i1 %21, label %22, label %23

22:                                               ; preds = %5
  store i32 -2147483647, ptr %6, align 4
  br label %119

23:                                               ; preds = %5
  %24 = load ptr, ptr %12, align 8
  %25 = getelementptr inbounds %struct.dtTileCacheLayerHeader, ptr %24, i32 0, i32 1
  %26 = load i32, ptr %25, align 4
  %27 = icmp ne i32 %26, 1
  br i1 %27, label %28, label %29

28:                                               ; preds = %23
  store i32 -2147483646, ptr %6, align 4
  br label %119

29:                                               ; preds = %23
  %30 = load ptr, ptr %12, align 8
  %31 = getelementptr inbounds %struct.dtTileCacheLayerHeader, ptr %30, i32 0, i32 2
  %32 = load i32, ptr %31, align 4
  %33 = load ptr, ptr %12, align 8
  %34 = getelementptr inbounds %struct.dtTileCacheLayerHeader, ptr %33, i32 0, i32 3
  %35 = load i32, ptr %34, align 4
  %36 = load ptr, ptr %12, align 8
  %37 = getelementptr inbounds %struct.dtTileCacheLayerHeader, ptr %36, i32 0, i32 4
  %38 = load i32, ptr %37, align 4
  %39 = call noundef ptr @_ZN11dtTileCache9getTileAtEiii(ptr noundef nonnull align 8 dereferenceable(912) %16, i32 noundef %32, i32 noundef %35, i32 noundef %38)
  %40 = icmp ne ptr %39, null
  br i1 %40, label %41, label %42

41:                                               ; preds = %29
  store i32 -2147483648, ptr %6, align 4
  br label %119

42:                                               ; preds = %29
  store ptr null, ptr %13, align 8
  %43 = getelementptr inbounds %class.dtTileCache, ptr %16, i32 0, i32 3
  %44 = load ptr, ptr %43, align 8
  %45 = icmp ne ptr %44, null
  br i1 %45, label %46, label %55

46:                                               ; preds = %42
  %47 = getelementptr inbounds %class.dtTileCache, ptr %16, i32 0, i32 3
  %48 = load ptr, ptr %47, align 8
  store ptr %48, ptr %13, align 8
  %49 = load ptr, ptr %13, align 8
  %50 = getelementptr inbounds %struct.dtCompressedTile, ptr %49, i32 0, i32 7
  %51 = load ptr, ptr %50, align 8
  %52 = getelementptr inbounds %class.dtTileCache, ptr %16, i32 0, i32 3
  store ptr %51, ptr %52, align 8
  %53 = load ptr, ptr %13, align 8
  %54 = getelementptr inbounds %struct.dtCompressedTile, ptr %53, i32 0, i32 7
  store ptr null, ptr %54, align 8
  br label %55

55:                                               ; preds = %46, %42
  %56 = load ptr, ptr %13, align 8
  %57 = icmp ne ptr %56, null
  br i1 %57, label %59, label %58

58:                                               ; preds = %55
  store i32 -2147483644, ptr %6, align 4
  br label %119

59:                                               ; preds = %55
  %60 = load ptr, ptr %12, align 8
  %61 = getelementptr inbounds %struct.dtTileCacheLayerHeader, ptr %60, i32 0, i32 2
  %62 = load i32, ptr %61, align 4
  %63 = load ptr, ptr %12, align 8
  %64 = getelementptr inbounds %struct.dtTileCacheLayerHeader, ptr %63, i32 0, i32 3
  %65 = load i32, ptr %64, align 4
  %66 = getelementptr inbounds %class.dtTileCache, ptr %16, i32 0, i32 1
  %67 = load i32, ptr %66, align 4
  %68 = call noundef i32 @_Z15computeTileHashiii(i32 noundef %62, i32 noundef %65, i32 noundef %67)
  store i32 %68, ptr %14, align 4
  %69 = getelementptr inbounds %class.dtTileCache, ptr %16, i32 0, i32 2
  %70 = load ptr, ptr %69, align 8
  %71 = load i32, ptr %14, align 4
  %72 = sext i32 %71 to i64
  %73 = getelementptr inbounds ptr, ptr %70, i64 %72
  %74 = load ptr, ptr %73, align 8
  %75 = load ptr, ptr %13, align 8
  %76 = getelementptr inbounds %struct.dtCompressedTile, ptr %75, i32 0, i32 7
  store ptr %74, ptr %76, align 8
  %77 = load ptr, ptr %13, align 8
  %78 = getelementptr inbounds %class.dtTileCache, ptr %16, i32 0, i32 2
  %79 = load ptr, ptr %78, align 8
  %80 = load i32, ptr %14, align 4
  %81 = sext i32 %80 to i64
  %82 = getelementptr inbounds ptr, ptr %79, i64 %81
  store ptr %77, ptr %82, align 8
  %83 = call noundef i32 @_Z8dtAlign4i(i32 noundef 56)
  store i32 %83, ptr %15, align 4
  %84 = load ptr, ptr %8, align 8
  %85 = load ptr, ptr %13, align 8
  %86 = getelementptr inbounds %struct.dtCompressedTile, ptr %85, i32 0, i32 1
  store ptr %84, ptr %86, align 8
  %87 = load ptr, ptr %8, align 8
  %88 = load ptr, ptr %13, align 8
  %89 = getelementptr inbounds %struct.dtCompressedTile, ptr %88, i32 0, i32 4
  store ptr %87, ptr %89, align 8
  %90 = load i32, ptr %9, align 4
  %91 = load ptr, ptr %13, align 8
  %92 = getelementptr inbounds %struct.dtCompressedTile, ptr %91, i32 0, i32 5
  store i32 %90, ptr %92, align 8
  %93 = load ptr, ptr %13, align 8
  %94 = getelementptr inbounds %struct.dtCompressedTile, ptr %93, i32 0, i32 4
  %95 = load ptr, ptr %94, align 8
  %96 = load i32, ptr %15, align 4
  %97 = sext i32 %96 to i64
  %98 = getelementptr inbounds i8, ptr %95, i64 %97
  %99 = load ptr, ptr %13, align 8
  %100 = getelementptr inbounds %struct.dtCompressedTile, ptr %99, i32 0, i32 2
  store ptr %98, ptr %100, align 8
  %101 = load ptr, ptr %13, align 8
  %102 = getelementptr inbounds %struct.dtCompressedTile, ptr %101, i32 0, i32 5
  %103 = load i32, ptr %102, align 8
  %104 = load i32, ptr %15, align 4
  %105 = sub nsw i32 %103, %104
  %106 = load ptr, ptr %13, align 8
  %107 = getelementptr inbounds %struct.dtCompressedTile, ptr %106, i32 0, i32 3
  store i32 %105, ptr %107, align 8
  %108 = load i8, ptr %10, align 1
  %109 = zext i8 %108 to i32
  %110 = load ptr, ptr %13, align 8
  %111 = getelementptr inbounds %struct.dtCompressedTile, ptr %110, i32 0, i32 6
  store i32 %109, ptr %111, align 4
  %112 = load ptr, ptr %11, align 8
  %113 = icmp ne ptr %112, null
  br i1 %113, label %114, label %118

114:                                              ; preds = %59
  %115 = load ptr, ptr %13, align 8
  %116 = call noundef i32 @_ZNK11dtTileCache10getTileRefEPK16dtCompressedTile(ptr noundef nonnull align 8 dereferenceable(912) %16, ptr noundef %115)
  %117 = load ptr, ptr %11, align 8
  store i32 %116, ptr %117, align 4
  br label %118

118:                                              ; preds = %114, %59
  store i32 1073741824, ptr %6, align 4
  br label %119

119:                                              ; preds = %118, %58, %41, %28, %22
  %120 = load i32, ptr %6, align 4
  ret i32 %120
}