; Function Attrs: mustprogress nofree norecurse nosync nounwind memory(readwrite, inaccessiblemem: none) uwtable
define noundef range(i32 1073741824, -2147483643) i32 @_ZN11dtTileCache7addTileEPhihPj(ptr noundef nonnull align 8 captures(none) dereferenceable(912) %0, ptr noundef %1, i32 noundef %2, i8 noundef zeroext %3, ptr noundef writeonly %4) local_unnamed_addr #14 align 2 {
  %6 = load i32, ptr %1, align 4
  %.not = icmp eq i32 %6, 1146375250
  br i1 %.not, label %7, label %_ZN11dtTileCache9getTileAtEiii.exit

7:                                                ; preds = %5
  %8 = getelementptr inbounds nuw i8, ptr %1, i64 4
  %9 = load i32, ptr %8, align 4
  %.not36 = icmp eq i32 %9, 1
  br i1 %.not36, label %10, label %_ZN11dtTileCache9getTileAtEiii.exit

10:                                               ; preds = %7
  %11 = getelementptr inbounds nuw i8, ptr %1, i64 8
  %12 = load i32, ptr %11, align 4
  %13 = getelementptr inbounds nuw i8, ptr %1, i64 12
  %14 = load i32, ptr %13, align 4
  %15 = getelementptr inbounds nuw i8, ptr %1, i64 16
  %16 = load i32, ptr %15, align 4
  %17 = getelementptr inbounds nuw i8, ptr %0, i64 4
  %18 = load i32, ptr %17, align 4
  %19 = mul i32 %12, -1918454973
  %20 = mul i32 %14, -669632447
  %21 = add i32 %20, %19
  %22 = and i32 %18, %21
  %23 = getelementptr inbounds nuw i8, ptr %0, i64 8
  %24 = load ptr, ptr %23, align 8
  %25 = sext i32 %22 to i64
  %26 = getelementptr inbounds ptr, ptr %24, i64 %25
  %.017.i = load ptr, ptr %26, align 8
  %.not18.i = icmp eq ptr %.017.i, null
  br i1 %.not18.i, label %.loopexit, label %.lr.ph.i

.lr.ph.i:                                         ; preds = %10, %41
  %.019.i = phi ptr [ %.0.i, %41 ], [ %.017.i, %10 ]
  %27 = getelementptr inbounds nuw i8, ptr %.019.i, i64 8
  %28 = load ptr, ptr %27, align 8
  %.not16.i = icmp eq ptr %28, null
  br i1 %.not16.i, label %41, label %29

29:                                               ; preds = %.lr.ph.i
  %30 = getelementptr inbounds nuw i8, ptr %28, i64 8
  %31 = load i32, ptr %30, align 4
  %32 = icmp eq i32 %31, %12
  br i1 %32, label %33, label %41

33:                                               ; preds = %29
  %34 = getelementptr inbounds nuw i8, ptr %28, i64 12
  %35 = load i32, ptr %34, align 4
  %36 = icmp eq i32 %35, %14
  br i1 %36, label %37, label %41

37:                                               ; preds = %33
  %38 = getelementptr inbounds nuw i8, ptr %28, i64 16
  %39 = load i32, ptr %38, align 4
  %40 = icmp eq i32 %39, %16
  br i1 %40, label %_ZN11dtTileCache9getTileAtEiii.exit, label %41

41:                                               ; preds = %37, %33, %29, %.lr.ph.i
  %42 = getelementptr inbounds nuw i8, ptr %.019.i, i64 48
  %.0.i = load ptr, ptr %42, align 8
  %.not.i = icmp eq ptr %.0.i, null
  br i1 %.not.i, label %.loopexit, label %.lr.ph.i, !llvm.loop !9

.loopexit:                                        ; preds = %41, %10
  %43 = getelementptr inbounds nuw i8, ptr %0, i64 16
  %44 = load ptr, ptr %43, align 8
  %.not38 = icmp eq ptr %44, null
  br i1 %.not38, label %_ZN11dtTileCache9getTileAtEiii.exit, label %45

45:                                               ; preds = %.loopexit
  %46 = getelementptr inbounds nuw i8, ptr %44, i64 48
  %47 = load ptr, ptr %46, align 8
  store ptr %47, ptr %43, align 8
  store ptr null, ptr %46, align 8
  %48 = load i32, ptr %11, align 4
  %49 = load i32, ptr %13, align 4
  %50 = load i32, ptr %17, align 4
  %51 = mul i32 %48, -1918454973
  %52 = mul i32 %49, -669632447
  %53 = add i32 %52, %51
  %54 = and i32 %53, %50
  %55 = load ptr, ptr %23, align 8
  %56 = sext i32 %54 to i64
  %57 = getelementptr inbounds ptr, ptr %55, i64 %56
  %58 = load ptr, ptr %57, align 8
  store ptr %58, ptr %46, align 8
  %59 = load ptr, ptr %23, align 8
  %60 = getelementptr inbounds ptr, ptr %59, i64 %56
  store ptr %44, ptr %60, align 8
  %61 = getelementptr inbounds nuw i8, ptr %44, i64 8
  store ptr %1, ptr %61, align 8
  %62 = getelementptr inbounds nuw i8, ptr %44, i64 32
  store ptr %1, ptr %62, align 8
  %63 = getelementptr inbounds nuw i8, ptr %44, i64 40
  store i32 %2, ptr %63, align 8
  %64 = getelementptr inbounds nuw i8, ptr %1, i64 56
  %65 = getelementptr inbounds nuw i8, ptr %44, i64 16
  store ptr %64, ptr %65, align 8
  %66 = add nsw i32 %2, -56
  %67 = getelementptr inbounds nuw i8, ptr %44, i64 24
  store i32 %66, ptr %67, align 8
  %68 = zext i8 %3 to i32
  %69 = getelementptr inbounds nuw i8, ptr %44, i64 44
  store i32 %68, ptr %69, align 4
  %.not40 = icmp eq ptr %4, null
  br i1 %.not40, label %_ZN11dtTileCache9getTileAtEiii.exit, label %_ZNK11dtTileCache10getTileRefEPK16dtCompressedTile.exit

_ZNK11dtTileCache10getTileRefEPK16dtCompressedTile.exit: ; preds = %45
  %70 = getelementptr inbounds nuw i8, ptr %0, i64 24
  %71 = load ptr, ptr %70, align 8
  %72 = ptrtoint ptr %44 to i64
  %73 = ptrtoint ptr %71 to i64
  %74 = sub i64 %72, %73
  %75 = sdiv exact i64 %74, 56
  %76 = trunc i64 %75 to i32
  %77 = load i32, ptr %44, align 8
  %78 = getelementptr inbounds nuw i8, ptr %0, i64 36
  %79 = load i32, ptr %78, align 4
  %80 = shl i32 %77, %79
  %81 = or i32 %80, %76
  store i32 %81, ptr %4, align 4
  br label %_ZN11dtTileCache9getTileAtEiii.exit

_ZN11dtTileCache9getTileAtEiii.exit:              ; preds = %37, %.loopexit, %45, %_ZNK11dtTileCache10getTileRefEPK16dtCompressedTile.exit, %7, %5
  %.0 = phi i32 [ -2147483647, %5 ], [ -2147483646, %7 ], [ 1073741824, %_ZNK11dtTileCache10getTileRefEPK16dtCompressedTile.exit ], [ 1073741824, %45 ], [ -2147483644, %.loopexit ], [ -2147483648, %37 ]
  ret i32 %.0
}